target datalayout = "e-m:e-p270:32:32-p271:32:32-p272:64:64-i64:64-i128:128-f80:128-n8:16:32:64-S128"
target triple = "x86_64-pc-linux-gnu"

%struct.pointf_s = type { double, double }
%struct.boxf = type { %struct.pointf_s, %struct.pointf_s }
%struct.Agobj_s = type { %struct.Agtag_s, ptr }
%struct.Agtag_s = type { i32, i64 }
%struct.Agraphinfo_t = type { %struct.Agrec_s, ptr, ptr, %struct.boxf, [4 x %struct.pointf_s], i8, i8, i8, i8, i32, double, double, i16, ptr, ptr, ptr, ptr, i32, ptr, ptr, ptr, ptr, i16, i16, i32, ptr, ptr, ptr, ptr, ptr, i32, ptr, ptr, %struct.nlist_t, ptr, ptr, i32, i32, i8, i8, i32, i32, i32, ptr, ptr, ptr, ptr, i8, i8, i8, i8, i8 }
%struct.Agrec_s = type { ptr, ptr }
%struct.nlist_t = type { ptr, i64 }
%struct.textlabel_t = type { ptr, ptr, ptr, i32, double, %struct.pointf_s, %struct.pointf_s, %struct.pointf_s, %union.anon.0, i8, i8, i8 }
%union.anon.0 = type { %struct.anon }
%struct.anon = type { ptr, i64 }

; Function Attrs: nounwind uwtable
define internal i64 @countClusterLabels(ptr noundef %0) #0 {
  %2 = alloca ptr, align 8
  %3 = alloca i64, align 8
  %4 = alloca i32, align 4
  store ptr %0, ptr %2, align 8, !tbaa !3
  call void @llvm.lifetime.start.p0(i64 8, ptr %3) #12
  store i64 0, ptr %3, align 8, !tbaa !62
  %5 = load ptr, ptr %2, align 8, !tbaa !3
  %6 = load ptr, ptr %2, align 8, !tbaa !3
  %7 = call ptr @agroot(ptr noundef %6)
  %8 = icmp ne ptr %5, %7
  br i1 %8, label %9, label %28

9:                                                ; preds = %1
  %10 = load ptr, ptr %2, align 8, !tbaa !3
  %11 = getelementptr inbounds nuw %struct.Agobj_s, ptr %10, i32 0, i32 1
  %12 = load ptr, ptr %11, align 8, !tbaa !10
  %13 = getelementptr inbounds nuw %struct.Agraphinfo_t, ptr %12, i32 0, i32 2
  %14 = load ptr, ptr %13, align 8, !tbaa !27
  %15 = icmp ne ptr %14, null
  br i1 %15, label %16, label %28

16:                                               ; preds = %9
  %17 = load ptr, ptr %2, align 8, !tbaa !3
  %18 = getelementptr inbounds nuw %struct.Agobj_s, ptr %17, i32 0, i32 1
  %19 = load ptr, ptr %18, align 8, !tbaa !10
  %20 = getelementptr inbounds nuw %struct.Agraphinfo_t, ptr %19, i32 0, i32 2
  %21 = load ptr, ptr %20, align 8, !tbaa !27
  %22 = getelementptr inbounds nuw %struct.textlabel_t, ptr %21, i32 0, i32 10
  %23 = load i8, ptr %22, align 1, !tbaa !51, !range !49, !noundef !50
  %24 = trunc i8 %23 to i1
  br i1 %24, label %25, label %28

25:                                               ; preds = %16
  %26 = load i64, ptr %3, align 8, !tbaa !62
  %27 = add i64 %26, 1
  store i64 %27, ptr %3, align 8, !tbaa !62
  br label %28

28:                                               ; preds = %25, %16, %9, %1
  call void @llvm.lifetime.start.p0(i64 4, ptr %4) #12
  store i32 1, ptr %4, align 4, !tbaa !8
  br label %29

29:                                               ; preds = %51, %28
  %30 = load i32, ptr %4, align 4, !tbaa !8
  %31 = load ptr, ptr %2, align 8, !tbaa !3
  %32 = getelementptr inbounds nuw %struct.Agobj_s, ptr %31, i32 0, i32 1
  %33 = load ptr, ptr %32, align 8, !tbaa !10
  %34 = getelementptr inbounds nuw %struct.Agraphinfo_t, ptr %33, i32 0, i32 24
  %35 = load i32, ptr %34, align 4, !tbaa !43
  %36 = icmp sle i32 %30, %35
  br i1 %36, label %38, label %37

37:                                               ; preds = %29
  call void @llvm.lifetime.end.p0(i64 4, ptr %4) #12
  br label %54

38:                                               ; preds = %29
  %39 = load ptr, ptr %2, align 8, !tbaa !3
  %40 = getelementptr inbounds nuw %struct.Agobj_s, ptr %39, i32 0, i32 1
  %41 = load ptr, ptr %40, align 8, !tbaa !10
  %42 = getelementptr inbounds nuw %struct.Agraphinfo_t, ptr %41, i32 0, i32 25
  %43 = load ptr, ptr %42, align 8, !tbaa !44
  %44 = load i32, ptr %4, align 4, !tbaa !8
  %45 = sext i32 %44 to i64
  %46 = getelementptr inbounds ptr, ptr %43, i64 %45
  %47 = load ptr, ptr %46, align 8, !tbaa !3
  %48 = call i64 @countClusterLabels(ptr noundef %47)
  %49 = load i64, ptr %3, align 8, !tbaa !62
  %50 = add i64 %49, %48
  store i64 %50, ptr %3, align 8, !tbaa !62
  br label %51

51:                                               ; preds = %38
  %52 = load i32, ptr %4, align 4, !tbaa !8
  %53 = add nsw i32 %52, 1
  store i32 %53, ptr %4, align 4, !tbaa !8
  br label %29, !llvm.loop !106

54:                                               ; preds = %37
  %55 = load i64, ptr %3, align 8, !tbaa !62
  call void @llvm.lifetime.end.p0(i64 8, ptr %3) #12
  ret i64 %55
}