; Function Attrs: nounwind uwtable
define internal fastcc i64 @countClusterLabels(ptr noundef %0) unnamed_addr #0 {
  %2 = tail call ptr @agroot(ptr noundef %0) #18
  %.not = icmp eq ptr %0, %2
  %.phi.trans.insert = getelementptr inbounds nuw i8, ptr %0, i64 16
  %.pre = load ptr, ptr %.phi.trans.insert, align 8, !tbaa !3
  br i1 %.not, label %._crit_edge20, label %3

3:                                                ; preds = %1
  %4 = getelementptr inbounds nuw i8, ptr %.pre, i64 24
  %5 = load ptr, ptr %4, align 8, !tbaa !18
  %.not14 = icmp eq ptr %5, null
  br i1 %.not14, label %._crit_edge20, label %6

6:                                                ; preds = %3
  %7 = getelementptr inbounds nuw i8, ptr %5, i64 105
  %8 = load i8, ptr %7, align 1, !tbaa !52, !range !54, !noundef !55
  %spec.select = zext nneg i8 %8 to i64
  br label %._crit_edge20

._crit_edge20:                                    ; preds = %1, %6, %3
  %.011 = phi i64 [ 0, %3 ], [ %spec.select, %6 ], [ 0, %1 ]
  %9 = getelementptr inbounds nuw i8, ptr %0, i64 16
  %10 = getelementptr inbounds nuw i8, ptr %.pre, i64 236
  %11 = load i32, ptr %10, align 4, !tbaa !36
  %.not1516 = icmp slt i32 %11, 1
  br i1 %.not1516, label %._crit_edge, label %.lr.ph

._crit_edge:                                      ; preds = %.lr.ph, %._crit_edge20
  %.1.lcssa = phi i64 [ %.011, %._crit_edge20 ], [ %18, %.lr.ph ]
  ret i64 %.1.lcssa

.lr.ph:                                           ; preds = %._crit_edge20, %.lr.ph
  %indvars.iv = phi i64 [ %indvars.iv.next, %.lr.ph ], [ 1, %._crit_edge20 ]
  %12 = phi ptr [ %19, %.lr.ph ], [ %.pre, %._crit_edge20 ]
  %.117 = phi i64 [ %18, %.lr.ph ], [ %.011, %._crit_edge20 ]
  %13 = getelementptr inbounds nuw i8, ptr %12, i64 240
  %14 = load ptr, ptr %13, align 8, !tbaa !37
  %15 = getelementptr inbounds nuw ptr, ptr %14, i64 %indvars.iv
  %16 = load ptr, ptr %15, align 8, !tbaa !38
  %17 = tail call fastcc i64 @countClusterLabels(ptr noundef %16)
  %18 = add i64 %17, %.117
  %indvars.iv.next = add nuw nsw i64 %indvars.iv, 1
  %19 = load ptr, ptr %9, align 8, !tbaa !3
  %20 = getelementptr inbounds nuw i8, ptr %19, i64 236
  %21 = load i32, ptr %20, align 4, !tbaa !36
  %22 = sext i32 %21 to i64
  %.not15.not = icmp slt i64 %indvars.iv, %22
  br i1 %.not15.not, label %.lr.ph, label %._crit_edge, !llvm.loop !147
}